
tank-lcd.elf:     file format elf32-avr

Sections:
Idx Name          Size      VMA       LMA       File off  Algn
  0 .data         0000000e  00800100  000004ae  00000542  2**0
                  CONTENTS, ALLOC, LOAD, DATA
  1 .text         000004ae  00000000  00000000  00000094  2**1
                  CONTENTS, ALLOC, LOAD, READONLY, CODE
  2 .bss          00000009  0080010e  0080010e  00000550  2**0
                  ALLOC
  3 .stab         00000f54  00000000  00000000  00000550  2**2
                  CONTENTS, READONLY, DEBUGGING
  4 .stabstr      000008f1  00000000  00000000  000014a4  2**0
                  CONTENTS, READONLY, DEBUGGING
  5 .comment      00000011  00000000  00000000  00001d95  2**0
                  CONTENTS, READONLY

Disassembly of section .text:

00000000 <__vectors>:
   0:	0c 94 46 00 	jmp	0x8c	; 0x8c <__ctors_end>
   4:	0c 94 63 00 	jmp	0xc6	; 0xc6 <__bad_interrupt>
   8:	0c 94 63 00 	jmp	0xc6	; 0xc6 <__bad_interrupt>
   c:	0c 94 63 00 	jmp	0xc6	; 0xc6 <__bad_interrupt>
  10:	0c 94 63 00 	jmp	0xc6	; 0xc6 <__bad_interrupt>
  14:	0c 94 63 00 	jmp	0xc6	; 0xc6 <__bad_interrupt>
  18:	0c 94 63 00 	jmp	0xc6	; 0xc6 <__bad_interrupt>
  1c:	0c 94 63 00 	jmp	0xc6	; 0xc6 <__bad_interrupt>
  20:	0c 94 63 00 	jmp	0xc6	; 0xc6 <__bad_interrupt>
  24:	0c 94 63 00 	jmp	0xc6	; 0xc6 <__bad_interrupt>
  28:	0c 94 63 00 	jmp	0xc6	; 0xc6 <__bad_interrupt>
  2c:	0c 94 63 00 	jmp	0xc6	; 0xc6 <__bad_interrupt>
  30:	0c 94 63 00 	jmp	0xc6	; 0xc6 <__bad_interrupt>
  34:	0c 94 63 00 	jmp	0xc6	; 0xc6 <__bad_interrupt>
  38:	0c 94 63 00 	jmp	0xc6	; 0xc6 <__bad_interrupt>
  3c:	0c 94 63 00 	jmp	0xc6	; 0xc6 <__bad_interrupt>
  40:	0c 94 63 00 	jmp	0xc6	; 0xc6 <__bad_interrupt>
  44:	0c 94 63 00 	jmp	0xc6	; 0xc6 <__bad_interrupt>
  48:	0c 94 63 00 	jmp	0xc6	; 0xc6 <__bad_interrupt>
  4c:	0c 94 63 00 	jmp	0xc6	; 0xc6 <__bad_interrupt>
  50:	0c 94 63 00 	jmp	0xc6	; 0xc6 <__bad_interrupt>
  54:	0c 94 63 00 	jmp	0xc6	; 0xc6 <__bad_interrupt>
  58:	0c 94 63 00 	jmp	0xc6	; 0xc6 <__bad_interrupt>
  5c:	0c 94 63 00 	jmp	0xc6	; 0xc6 <__bad_interrupt>
  60:	0c 94 63 00 	jmp	0xc6	; 0xc6 <__bad_interrupt>
  64:	0c 94 63 00 	jmp	0xc6	; 0xc6 <__bad_interrupt>
  68:	0c 94 63 00 	jmp	0xc6	; 0xc6 <__bad_interrupt>
  6c:	0c 94 63 00 	jmp	0xc6	; 0xc6 <__bad_interrupt>
  70:	0c 94 63 00 	jmp	0xc6	; 0xc6 <__bad_interrupt>
  74:	0c 94 63 00 	jmp	0xc6	; 0xc6 <__bad_interrupt>
  78:	0c 94 63 00 	jmp	0xc6	; 0xc6 <__bad_interrupt>
  7c:	0c 94 63 00 	jmp	0xc6	; 0xc6 <__bad_interrupt>
  80:	0c 94 63 00 	jmp	0xc6	; 0xc6 <__bad_interrupt>
  84:	0c 94 63 00 	jmp	0xc6	; 0xc6 <__bad_interrupt>
  88:	0c 94 63 00 	jmp	0xc6	; 0xc6 <__bad_interrupt>

0000008c <__ctors_end>:
  8c:	11 24       	eor	r1, r1
  8e:	1f be       	out	0x3f, r1	; 63
  90:	cf ef       	ldi	r28, 0xFF	; 255
  92:	d0 e1       	ldi	r29, 0x10	; 16
  94:	de bf       	out	0x3e, r29	; 62
  96:	cd bf       	out	0x3d, r28	; 61

00000098 <__do_copy_data>:
  98:	11 e0       	ldi	r17, 0x01	; 1
  9a:	a0 e0       	ldi	r26, 0x00	; 0
  9c:	b1 e0       	ldi	r27, 0x01	; 1
  9e:	ee ea       	ldi	r30, 0xAE	; 174
  a0:	f4 e0       	ldi	r31, 0x04	; 4
  a2:	02 c0       	rjmp	.+4      	; 0xa8 <__do_copy_data+0x10>
  a4:	05 90       	lpm	r0, Z+
  a6:	0d 92       	st	X+, r0
  a8:	ae 30       	cpi	r26, 0x0E	; 14
  aa:	b1 07       	cpc	r27, r17
  ac:	d9 f7       	brne	.-10     	; 0xa4 <__do_copy_data+0xc>

000000ae <__do_clear_bss>:
  ae:	11 e0       	ldi	r17, 0x01	; 1
  b0:	ae e0       	ldi	r26, 0x0E	; 14
  b2:	b1 e0       	ldi	r27, 0x01	; 1
  b4:	01 c0       	rjmp	.+2      	; 0xb8 <.do_clear_bss_start>

000000b6 <.do_clear_bss_loop>:
  b6:	1d 92       	st	X+, r1

000000b8 <.do_clear_bss_start>:
  b8:	a7 31       	cpi	r26, 0x17	; 23
  ba:	b1 07       	cpc	r27, r17
  bc:	e1 f7       	brne	.-8      	; 0xb6 <.do_clear_bss_loop>
  be:	0e 94 e1 01 	call	0x3c2	; 0x3c2 <main>
  c2:	0c 94 55 02 	jmp	0x4aa	; 0x4aa <_exit>

000000c6 <__bad_interrupt>:
  c6:	0c 94 00 00 	jmp	0	; 0x0 <__vectors>

000000ca <toggle_e>:
  ca:	ac 9a       	sbi	0x15, 4	; 21
  cc:	00 c0       	rjmp	.+0      	; 0xce <toggle_e+0x4>
  ce:	00 c0       	rjmp	.+0      	; 0xd0 <toggle_e+0x6>
  d0:	ac 98       	cbi	0x15, 4	; 21
  d2:	08 95       	ret

000000d4 <lcd_out_high>:
  d4:	87 ff       	sbrs	r24, 7
  d6:	02 c0       	rjmp	.+4      	; 0xdc <lcd_out_high+0x8>
  d8:	ab 9a       	sbi	0x15, 3	; 21
  da:	01 c0       	rjmp	.+2      	; 0xde <lcd_out_high+0xa>
  dc:	ab 98       	cbi	0x15, 3	; 21
  de:	86 ff       	sbrs	r24, 6
  e0:	02 c0       	rjmp	.+4      	; 0xe6 <lcd_out_high+0x12>
  e2:	aa 9a       	sbi	0x15, 2	; 21
  e4:	01 c0       	rjmp	.+2      	; 0xe8 <lcd_out_high+0x14>
  e6:	aa 98       	cbi	0x15, 2	; 21
  e8:	85 ff       	sbrs	r24, 5
  ea:	02 c0       	rjmp	.+4      	; 0xf0 <lcd_out_high+0x1c>
  ec:	a9 9a       	sbi	0x15, 1	; 21
  ee:	01 c0       	rjmp	.+2      	; 0xf2 <lcd_out_high+0x1e>
  f0:	a9 98       	cbi	0x15, 1	; 21
  f2:	84 ff       	sbrs	r24, 4
  f4:	02 c0       	rjmp	.+4      	; 0xfa <lcd_out_high+0x26>
  f6:	a8 9a       	sbi	0x15, 0	; 21
  f8:	08 95       	ret
  fa:	a8 98       	cbi	0x15, 0	; 21
  fc:	08 95       	ret

000000fe <lcd_write>:
  fe:	cf 93       	push	r28
 100:	df 93       	push	r29
 102:	c8 2f       	mov	r28, r24
 104:	d6 2f       	mov	r29, r22
 106:	a3 9a       	sbi	0x14, 3	; 20
 108:	a2 9a       	sbi	0x14, 2	; 20
 10a:	a1 9a       	sbi	0x14, 1	; 20
 10c:	a0 9a       	sbi	0x14, 0	; 20
 10e:	0e 94 6a 00 	call	0xd4	; 0xd4 <lcd_out_high>
 112:	dd 23       	and	r29, r29
 114:	11 f0       	breq	.+4      	; 0x11a <lcd_write+0x1c>
 116:	ae 9a       	sbi	0x15, 6	; 21
 118:	01 c0       	rjmp	.+2      	; 0x11c <lcd_write+0x1e>
 11a:	ae 98       	cbi	0x15, 6	; 21
 11c:	ad 98       	cbi	0x15, 5	; 21
 11e:	0e 94 65 00 	call	0xca	; 0xca <toggle_e>
 122:	c3 ff       	sbrs	r28, 3
 124:	02 c0       	rjmp	.+4      	; 0x12a <lcd_write+0x2c>
 126:	ab 9a       	sbi	0x15, 3	; 21
 128:	01 c0       	rjmp	.+2      	; 0x12c <lcd_write+0x2e>
 12a:	ab 98       	cbi	0x15, 3	; 21
 12c:	c2 ff       	sbrs	r28, 2
 12e:	02 c0       	rjmp	.+4      	; 0x134 <lcd_write+0x36>
 130:	aa 9a       	sbi	0x15, 2	; 21
 132:	01 c0       	rjmp	.+2      	; 0x136 <lcd_write+0x38>
 134:	aa 98       	cbi	0x15, 2	; 21
 136:	c1 ff       	sbrs	r28, 1
 138:	02 c0       	rjmp	.+4      	; 0x13e <lcd_write+0x40>
 13a:	a9 9a       	sbi	0x15, 1	; 21
 13c:	01 c0       	rjmp	.+2      	; 0x140 <lcd_write+0x42>
 13e:	a9 98       	cbi	0x15, 1	; 21
 140:	c0 ff       	sbrs	r28, 0
 142:	02 c0       	rjmp	.+4      	; 0x148 <lcd_write+0x4a>
 144:	a8 9a       	sbi	0x15, 0	; 21
 146:	01 c0       	rjmp	.+2      	; 0x14a <lcd_write+0x4c>
 148:	a8 98       	cbi	0x15, 0	; 21
 14a:	dd 23       	and	r29, r29
 14c:	11 f0       	breq	.+4      	; 0x152 <lcd_write+0x54>
 14e:	ae 9a       	sbi	0x15, 6	; 21
 150:	01 c0       	rjmp	.+2      	; 0x154 <lcd_write+0x56>
 152:	ae 98       	cbi	0x15, 6	; 21
 154:	ad 98       	cbi	0x15, 5	; 21
 156:	0e 94 65 00 	call	0xca	; 0xca <toggle_e>
 15a:	a3 98       	cbi	0x14, 3	; 20
 15c:	a2 98       	cbi	0x14, 2	; 20
 15e:	a1 98       	cbi	0x14, 1	; 20
 160:	a0 98       	cbi	0x14, 0	; 20
 162:	df 91       	pop	r29
 164:	cf 91       	pop	r28
 166:	08 95       	ret

00000168 <lcd_waitbusy>:
 168:	a3 98       	cbi	0x14, 3	; 20
 16a:	a2 98       	cbi	0x14, 2	; 20
 16c:	a1 98       	cbi	0x14, 1	; 20
 16e:	a0 98       	cbi	0x14, 0	; 20
 170:	ae 98       	cbi	0x15, 6	; 21
 172:	ad 9a       	sbi	0x15, 5	; 21
 174:	ac 9a       	sbi	0x15, 4	; 21
 176:	00 c0       	rjmp	.+0      	; 0x178 <lcd_waitbusy+0x10>
 178:	00 c0       	rjmp	.+0      	; 0x17a <lcd_waitbusy+0x12>
 17a:	9b 9b       	sbis	0x13, 3	; 19
 17c:	02 c0       	rjmp	.+4      	; 0x182 <lcd_waitbusy+0x1a>
 17e:	70 e8       	ldi	r23, 0x80	; 128
 180:	01 c0       	rjmp	.+2      	; 0x184 <lcd_waitbusy+0x1c>
 182:	70 e0       	ldi	r23, 0x00	; 0
 184:	9a 9b       	sbis	0x13, 2	; 19
 186:	02 c0       	rjmp	.+4      	; 0x18c <lcd_waitbusy+0x24>
 188:	60 e4       	ldi	r22, 0x40	; 64
 18a:	01 c0       	rjmp	.+2      	; 0x18e <lcd_waitbusy+0x26>
 18c:	60 e0       	ldi	r22, 0x00	; 0
 18e:	99 9b       	sbis	0x13, 1	; 19
 190:	02 c0       	rjmp	.+4      	; 0x196 <lcd_waitbusy+0x2e>
 192:	50 e2       	ldi	r21, 0x20	; 32
 194:	01 c0       	rjmp	.+2      	; 0x198 <lcd_waitbusy+0x30>
 196:	50 e0       	ldi	r21, 0x00	; 0
 198:	98 9b       	sbis	0x13, 0	; 19
 19a:	02 c0       	rjmp	.+4      	; 0x1a0 <lcd_waitbusy+0x38>
 19c:	40 e1       	ldi	r20, 0x10	; 16
 19e:	01 c0       	rjmp	.+2      	; 0x1a2 <lcd_waitbusy+0x3a>
 1a0:	40 e0       	ldi	r20, 0x00	; 0
 1a2:	ac 98       	cbi	0x15, 4	; 21
 1a4:	00 c0       	rjmp	.+0      	; 0x1a6 <lcd_waitbusy+0x3e>
 1a6:	00 c0       	rjmp	.+0      	; 0x1a8 <lcd_waitbusy+0x40>
 1a8:	ac 9a       	sbi	0x15, 4	; 21
 1aa:	00 c0       	rjmp	.+0      	; 0x1ac <lcd_waitbusy+0x44>
 1ac:	00 c0       	rjmp	.+0      	; 0x1ae <lcd_waitbusy+0x46>
 1ae:	33 b3       	in	r19, 0x13	; 19
 1b0:	83 b3       	in	r24, 0x13	; 19
 1b2:	23 b3       	in	r18, 0x13	; 19
 1b4:	93 b3       	in	r25, 0x13	; 19
 1b6:	84 70       	andi	r24, 0x04	; 4
 1b8:	38 70       	andi	r19, 0x08	; 8
 1ba:	83 2b       	or	r24, r19
 1bc:	22 70       	andi	r18, 0x02	; 2
 1be:	82 2b       	or	r24, r18
 1c0:	91 70       	andi	r25, 0x01	; 1
 1c2:	89 2b       	or	r24, r25
 1c4:	87 2b       	or	r24, r23
 1c6:	86 2b       	or	r24, r22
 1c8:	85 2b       	or	r24, r21
 1ca:	84 2b       	or	r24, r20
 1cc:	ac 98       	cbi	0x15, 4	; 21
 1ce:	87 fd       	sbrc	r24, 7
 1d0:	cb cf       	rjmp	.-106    	; 0x168 <lcd_waitbusy>
 1d2:	08 95       	ret

000001d4 <lcd_delay_ms>:
 1d4:	20 ef       	ldi	r18, 0xF0	; 240
 1d6:	30 e0       	ldi	r19, 0x00	; 0
 1d8:	04 c0       	rjmp	.+8      	; 0x1e2 <lcd_delay_ms+0xe>
 1da:	f9 01       	movw	r30, r18
 1dc:	31 97       	sbiw	r30, 0x01	; 1
 1de:	f1 f7       	brne	.-4      	; 0x1dc <lcd_delay_ms+0x8>
 1e0:	01 97       	sbiw	r24, 0x01	; 1
 1e2:	00 97       	sbiw	r24, 0x00	; 0
 1e4:	d1 f7       	brne	.-12     	; 0x1da <lcd_delay_ms+0x6>
 1e6:	08 95       	ret

000001e8 <lcd_command>:
 1e8:	cf 93       	push	r28
 1ea:	c8 2f       	mov	r28, r24
 1ec:	0e 94 b4 00 	call	0x168	; 0x168 <lcd_waitbusy>
 1f0:	60 e0       	ldi	r22, 0x00	; 0
 1f2:	8c 2f       	mov	r24, r28
 1f4:	cf 91       	pop	r28
 1f6:	0c 94 7f 00 	jmp	0xfe	; 0xfe <lcd_write>

000001fa <lcd_gotoxy>:
 1fa:	61 11       	cpse	r22, r1
 1fc:	02 c0       	rjmp	.+4      	; 0x202 <lcd_gotoxy+0x8>
 1fe:	80 58       	subi	r24, 0x80	; 128
 200:	01 c0       	rjmp	.+2      	; 0x204 <lcd_gotoxy+0xa>
 202:	80 54       	subi	r24, 0x40	; 64
 204:	0c 94 f4 00 	jmp	0x1e8	; 0x1e8 <lcd_command>

00000208 <lcd_clrscr>:
 208:	81 e0       	ldi	r24, 0x01	; 1
 20a:	0c 94 f4 00 	jmp	0x1e8	; 0x1e8 <lcd_command>

0000020e <lcd_home>:
 20e:	82 e0       	ldi	r24, 0x02	; 2
 210:	0c 94 f4 00 	jmp	0x1e8	; 0x1e8 <lcd_command>

00000214 <lcd_putc>:
 214:	cf 93       	push	r28
 216:	c8 2f       	mov	r28, r24
 218:	0e 94 b4 00 	call	0x168	; 0x168 <lcd_waitbusy>
 21c:	80 93 0e 01 	sts	0x010E, r24
 220:	61 e0       	ldi	r22, 0x01	; 1
 222:	8c 2f       	mov	r24, r28
 224:	0e 94 7f 00 	call	0xfe	; 0xfe <lcd_write>
 228:	80 91 0e 01 	lds	r24, 0x010E
 22c:	cf 91       	pop	r28
 22e:	08 95       	ret

00000230 <lcd_putc_stream>:
 230:	cf 93       	push	r28
 232:	c8 2f       	mov	r28, r24
 234:	80 91 0f 01 	lds	r24, 0x010F
 238:	88 30       	cpi	r24, 0x08	; 8
 23a:	58 f4       	brcc	.+22     	; 0x252 <lcd_putc_stream+0x22>
 23c:	80 91 10 01 	lds	r24, 0x0110
 240:	88 23       	and	r24, r24
 242:	39 f0       	breq	.+14     	; 0x252 <lcd_putc_stream+0x22>
 244:	ca 30       	cpi	r28, 0x0A	; 10
 246:	29 f0       	breq	.+10     	; 0x252 <lcd_putc_stream+0x22>
 248:	10 92 10 01 	sts	0x0110, r1
 24c:	80 ec       	ldi	r24, 0xC0	; 192
 24e:	0e 94 f4 00 	call	0x1e8	; 0x1e8 <lcd_command>
 252:	80 91 0f 01 	lds	r24, 0x010F
 256:	89 30       	cpi	r24, 0x09	; 9
 258:	50 f0       	brcs	.+20     	; 0x26e <lcd_putc_stream+0x3e>
 25a:	80 91 10 01 	lds	r24, 0x0110
 25e:	88 23       	and	r24, r24
 260:	31 f0       	breq	.+12     	; 0x26e <lcd_putc_stream+0x3e>
 262:	ca 30       	cpi	r28, 0x0A	; 10
 264:	21 f0       	breq	.+8      	; 0x26e <lcd_putc_stream+0x3e>
 266:	10 92 10 01 	sts	0x0110, r1
 26a:	0e 94 04 01 	call	0x208	; 0x208 <lcd_clrscr>
 26e:	80 91 0f 01 	lds	r24, 0x010F
 272:	88 30       	cpi	r24, 0x08	; 8
 274:	19 f4       	brne	.+6      	; 0x27c <lcd_putc_stream+0x4c>
 276:	80 ec       	ldi	r24, 0xC0	; 192
 278:	0e 94 f4 00 	call	0x1e8	; 0x1e8 <lcd_command>
 27c:	80 91 0f 01 	lds	r24, 0x010F
 280:	88 34       	cpi	r24, 0x48	; 72
 282:	11 f4       	brne	.+4      	; 0x288 <lcd_putc_stream+0x58>
 284:	0e 94 04 01 	call	0x208	; 0x208 <lcd_clrscr>
 288:	ca 30       	cpi	r28, 0x0A	; 10
 28a:	21 f4       	brne	.+8      	; 0x294 <lcd_putc_stream+0x64>
 28c:	81 e0       	ldi	r24, 0x01	; 1
 28e:	80 93 10 01 	sts	0x0110, r24
 292:	07 c0       	rjmp	.+14     	; 0x2a2 <lcd_putc_stream+0x72>
 294:	cc 23       	and	r28, r28
 296:	29 f0       	breq	.+10     	; 0x2a2 <lcd_putc_stream+0x72>
 298:	8c 2f       	mov	r24, r28
 29a:	0e 94 0a 01 	call	0x214	; 0x214 <lcd_putc>
 29e:	80 93 0f 01 	sts	0x010F, r24
 2a2:	80 e0       	ldi	r24, 0x00	; 0
 2a4:	90 e0       	ldi	r25, 0x00	; 0
 2a6:	cf 91       	pop	r28
 2a8:	08 95       	ret

000002aa <rolltext_lcd_p>:
 2aa:	0f 93       	push	r16
 2ac:	1f 93       	push	r17
 2ae:	cf 93       	push	r28
 2b0:	df 93       	push	r29
 2b2:	ec 01       	movw	r28, r24
 2b4:	80 e0       	ldi	r24, 0x00	; 0
 2b6:	01 c0       	rjmp	.+2      	; 0x2ba <rolltext_lcd_p+0x10>
 2b8:	8f 5f       	subi	r24, 0xFF	; 255
 2ba:	fe 01       	movw	r30, r28
 2bc:	e8 0f       	add	r30, r24
 2be:	f1 1d       	adc	r31, r1
 2c0:	e4 91       	lpm	r30, Z
 2c2:	e1 11       	cpse	r30, r1
 2c4:	f9 cf       	rjmp	.-14     	; 0x2b8 <rolltext_lcd_p+0xe>
 2c6:	60 31       	cpi	r22, 0x10	; 16
 2c8:	71 05       	cpc	r23, r1
 2ca:	64 f4       	brge	.+24     	; 0x2e4 <rolltext_lcd_p+0x3a>
 2cc:	00 e1       	ldi	r16, 0x10	; 16
 2ce:	06 1b       	sub	r16, r22
 2d0:	10 e0       	ldi	r17, 0x00	; 0
 2d2:	04 c0       	rjmp	.+8      	; 0x2dc <rolltext_lcd_p+0x32>
 2d4:	80 e2       	ldi	r24, 0x20	; 32
 2d6:	0e 94 0a 01 	call	0x214	; 0x214 <lcd_putc>
 2da:	1f 5f       	subi	r17, 0xFF	; 255
 2dc:	10 13       	cpse	r17, r16
 2de:	fa cf       	rjmp	.-12     	; 0x2d4 <rolltext_lcd_p+0x2a>
 2e0:	60 e0       	ldi	r22, 0x00	; 0
 2e2:	04 c0       	rjmp	.+8      	; 0x2ec <rolltext_lcd_p+0x42>
 2e4:	6f 50       	subi	r22, 0x0F	; 15
 2e6:	86 17       	cp	r24, r22
 2e8:	88 f0       	brcs	.+34     	; 0x30c <rolltext_lcd_p+0x62>
 2ea:	10 e0       	ldi	r17, 0x00	; 0
 2ec:	06 2f       	mov	r16, r22
 2ee:	01 1b       	sub	r16, r17
 2f0:	09 c0       	rjmp	.+18     	; 0x304 <rolltext_lcd_p+0x5a>
 2f2:	fe 01       	movw	r30, r28
 2f4:	e8 0f       	add	r30, r24
 2f6:	f1 1d       	adc	r31, r1
 2f8:	84 91       	lpm	r24, Z
 2fa:	88 23       	and	r24, r24
 2fc:	39 f0       	breq	.+14     	; 0x30c <rolltext_lcd_p+0x62>
 2fe:	0e 94 0a 01 	call	0x214	; 0x214 <lcd_putc>
 302:	1f 5f       	subi	r17, 0xFF	; 255
 304:	80 2f       	mov	r24, r16
 306:	81 0f       	add	r24, r17
 308:	1f 30       	cpi	r17, 0x0F	; 15
 30a:	98 f3       	brcs	.-26     	; 0x2f2 <rolltext_lcd_p+0x48>
 30c:	df 91       	pop	r29
 30e:	cf 91       	pop	r28
 310:	1f 91       	pop	r17
 312:	0f 91       	pop	r16
 314:	08 95       	ret

00000316 <lcd_puts>:
 316:	cf 93       	push	r28
 318:	df 93       	push	r29
 31a:	ec 01       	movw	r28, r24
 31c:	02 c0       	rjmp	.+4      	; 0x322 <lcd_puts+0xc>
 31e:	0e 94 0a 01 	call	0x214	; 0x214 <lcd_putc>
 322:	89 91       	ld	r24, Y+
 324:	81 11       	cpse	r24, r1
 326:	fb cf       	rjmp	.-10     	; 0x31e <lcd_puts+0x8>
 328:	df 91       	pop	r29
 32a:	cf 91       	pop	r28
 32c:	08 95       	ret

0000032e <lcd_puts_p>:
 32e:	cf 93       	push	r28
 330:	df 93       	push	r29
 332:	ec 01       	movw	r28, r24
 334:	02 c0       	rjmp	.+4      	; 0x33a <lcd_puts_p+0xc>
 336:	0e 94 0a 01 	call	0x214	; 0x214 <lcd_putc>
 33a:	fe 01       	movw	r30, r28
 33c:	21 96       	adiw	r28, 0x01	; 1
 33e:	84 91       	lpm	r24, Z
 340:	81 11       	cpse	r24, r1
 342:	f9 cf       	rjmp	.-14     	; 0x336 <lcd_puts_p+0x8>
 344:	df 91       	pop	r29
 346:	cf 91       	pop	r28
 348:	08 95       	ret

0000034a <lcd_init>:
 34a:	cf 93       	push	r28
 34c:	c8 2f       	mov	r28, r24
 34e:	a3 9a       	sbi	0x14, 3	; 20
 350:	a2 9a       	sbi	0x14, 2	; 20
 352:	a1 9a       	sbi	0x14, 1	; 20
 354:	a0 9a       	sbi	0x14, 0	; 20
 356:	a6 9a       	sbi	0x14, 6	; 20
 358:	a5 9a       	sbi	0x14, 5	; 20
 35a:	a4 9a       	sbi	0x14, 4	; 20
 35c:	80 e1       	ldi	r24, 0x10	; 16
 35e:	90 e0       	ldi	r25, 0x00	; 0
 360:	0e 94 ea 00 	call	0x1d4	; 0x1d4 <lcd_delay_ms>
 364:	80 e3       	ldi	r24, 0x30	; 48
 366:	0e 94 6a 00 	call	0xd4	; 0xd4 <lcd_out_high>
 36a:	0e 94 65 00 	call	0xca	; 0xca <toggle_e>
 36e:	86 e0       	ldi	r24, 0x06	; 6
 370:	90 e0       	ldi	r25, 0x00	; 0
 372:	0e 94 ea 00 	call	0x1d4	; 0x1d4 <lcd_delay_ms>
 376:	80 e3       	ldi	r24, 0x30	; 48
 378:	0e 94 6a 00 	call	0xd4	; 0xd4 <lcd_out_high>
 37c:	0e 94 65 00 	call	0xca	; 0xca <toggle_e>
 380:	86 e0       	ldi	r24, 0x06	; 6
 382:	90 e0       	ldi	r25, 0x00	; 0
 384:	0e 94 ea 00 	call	0x1d4	; 0x1d4 <lcd_delay_ms>
 388:	80 e3       	ldi	r24, 0x30	; 48
 38a:	0e 94 6a 00 	call	0xd4	; 0xd4 <lcd_out_high>
 38e:	0e 94 65 00 	call	0xca	; 0xca <toggle_e>
 392:	86 e0       	ldi	r24, 0x06	; 6
 394:	90 e0       	ldi	r25, 0x00	; 0
 396:	0e 94 ea 00 	call	0x1d4	; 0x1d4 <lcd_delay_ms>
 39a:	80 e2       	ldi	r24, 0x20	; 32
 39c:	0e 94 6a 00 	call	0xd4	; 0xd4 <lcd_out_high>
 3a0:	0e 94 65 00 	call	0xca	; 0xca <toggle_e>
 3a4:	88 e2       	ldi	r24, 0x28	; 40
 3a6:	0e 94 f4 00 	call	0x1e8	; 0x1e8 <lcd_command>
 3aa:	88 e0       	ldi	r24, 0x08	; 8
 3ac:	0e 94 f4 00 	call	0x1e8	; 0x1e8 <lcd_command>
 3b0:	0e 94 04 01 	call	0x208	; 0x208 <lcd_clrscr>
 3b4:	86 e0       	ldi	r24, 0x06	; 6
 3b6:	0e 94 f4 00 	call	0x1e8	; 0x1e8 <lcd_command>
 3ba:	8c 2f       	mov	r24, r28
 3bc:	cf 91       	pop	r28
 3be:	0c 94 f4 00 	jmp	0x1e8	; 0x1e8 <lcd_command>

000003c2 <main>:
 3c2:	cf 93       	push	r28
 3c4:	df 93       	push	r29
 3c6:	cd b7       	in	r28, 0x3d	; 61
 3c8:	de b7       	in	r29, 0x3e	; 62
 3ca:	2e 97       	sbiw	r28, 0x0e	; 14
 3cc:	0f b6       	in	r0, 0x3f	; 63
 3ce:	f8 94       	cli
 3d0:	de bf       	out	0x3e, r29	; 62
 3d2:	0f be       	out	0x3f, r0	; 63
 3d4:	cd bf       	out	0x3d, r28	; 61
 3d6:	8c e0       	ldi	r24, 0x0C	; 12
 3d8:	0e 94 a5 01 	call	0x34a	; 0x34a <lcd_init>
 3dc:	0e 94 04 01 	call	0x208	; 0x208 <lcd_clrscr>
 3e0:	be 01       	movw	r22, r28
 3e2:	6f 5f       	subi	r22, 0xFF	; 255
 3e4:	7f 4f       	sbci	r23, 0xFF	; 255
 3e6:	8e e0       	ldi	r24, 0x0E	; 14
 3e8:	fb 01       	movw	r30, r22
 3ea:	11 92       	st	Z+, r1
 3ec:	8a 95       	dec	r24
 3ee:	e9 f7       	brne	.-6      	; 0x3ea <main+0x28>
 3f0:	82 e0       	ldi	r24, 0x02	; 2
 3f2:	8c 83       	std	Y+4, r24	; 0x04
 3f4:	88 e1       	ldi	r24, 0x18	; 24
 3f6:	91 e0       	ldi	r25, 0x01	; 1
 3f8:	9a 87       	std	Y+10, r25	; 0x0a
 3fa:	89 87       	std	Y+9, r24	; 0x09
 3fc:	70 93 16 01 	sts	0x0116, r23
 400:	60 93 15 01 	sts	0x0115, r22
 404:	80 e0       	ldi	r24, 0x00	; 0
 406:	91 e0       	ldi	r25, 0x01	; 1
 408:	0e 94 11 02 	call	0x422	; 0x422 <fputs>
 40c:	80 e0       	ldi	r24, 0x00	; 0
 40e:	90 e0       	ldi	r25, 0x00	; 0
 410:	2e 96       	adiw	r28, 0x0e	; 14
 412:	0f b6       	in	r0, 0x3f	; 63
 414:	f8 94       	cli
 416:	de bf       	out	0x3e, r29	; 62
 418:	0f be       	out	0x3f, r0	; 63
 41a:	cd bf       	out	0x3d, r28	; 61
 41c:	df 91       	pop	r29
 41e:	cf 91       	pop	r28
 420:	08 95       	ret

00000422 <fputs>:
 422:	ef 92       	push	r14
 424:	ff 92       	push	r15
 426:	0f 93       	push	r16
 428:	1f 93       	push	r17
 42a:	cf 93       	push	r28
 42c:	df 93       	push	r29
 42e:	7c 01       	movw	r14, r24
 430:	8b 01       	movw	r16, r22
 432:	db 01       	movw	r26, r22
 434:	13 96       	adiw	r26, 0x03	; 3
 436:	8c 91       	ld	r24, X
 438:	81 ff       	sbrs	r24, 1
 43a:	14 c0       	rjmp	.+40     	; 0x464 <fputs+0x42>
 43c:	c0 e0       	ldi	r28, 0x00	; 0
 43e:	d0 e0       	ldi	r29, 0x00	; 0
 440:	0b c0       	rjmp	.+22     	; 0x458 <fputs+0x36>
 442:	d8 01       	movw	r26, r16
 444:	18 96       	adiw	r26, 0x08	; 8
 446:	ed 91       	ld	r30, X+
 448:	fc 91       	ld	r31, X
 44a:	19 97       	sbiw	r26, 0x09	; 9
 44c:	b8 01       	movw	r22, r16
 44e:	09 95       	icall
 450:	89 2b       	or	r24, r25
 452:	11 f0       	breq	.+4      	; 0x458 <fputs+0x36>
 454:	cf ef       	ldi	r28, 0xFF	; 255
 456:	df ef       	ldi	r29, 0xFF	; 255
 458:	f7 01       	movw	r30, r14
 45a:	81 91       	ld	r24, Z+
 45c:	7f 01       	movw	r14, r30
 45e:	81 11       	cpse	r24, r1
 460:	f0 cf       	rjmp	.-32     	; 0x442 <fputs+0x20>
 462:	02 c0       	rjmp	.+4      	; 0x468 <fputs+0x46>
 464:	cf ef       	ldi	r28, 0xFF	; 255
 466:	df ef       	ldi	r29, 0xFF	; 255
 468:	ce 01       	movw	r24, r28
 46a:	cd b7       	in	r28, 0x3d	; 61
 46c:	de b7       	in	r29, 0x3e	; 62
 46e:	e6 e0       	ldi	r30, 0x06	; 6
 470:	0c 94 46 02 	jmp	0x48c	; 0x48c <__epilogue_restores__+0x18>

00000474 <__epilogue_restores__>:
 474:	2a 88       	ldd	r2, Y+18	; 0x12
 476:	39 88       	ldd	r3, Y+17	; 0x11
 478:	48 88       	ldd	r4, Y+16	; 0x10
 47a:	5f 84       	ldd	r5, Y+15	; 0x0f
 47c:	6e 84       	ldd	r6, Y+14	; 0x0e
 47e:	7d 84       	ldd	r7, Y+13	; 0x0d
 480:	8c 84       	ldd	r8, Y+12	; 0x0c
 482:	9b 84       	ldd	r9, Y+11	; 0x0b
 484:	aa 84       	ldd	r10, Y+10	; 0x0a
 486:	b9 84       	ldd	r11, Y+9	; 0x09
 488:	c8 84       	ldd	r12, Y+8	; 0x08
 48a:	df 80       	ldd	r13, Y+7	; 0x07
 48c:	ee 80       	ldd	r14, Y+6	; 0x06
 48e:	fd 80       	ldd	r15, Y+5	; 0x05
 490:	0c 81       	ldd	r16, Y+4	; 0x04
 492:	1b 81       	ldd	r17, Y+3	; 0x03
 494:	aa 81       	ldd	r26, Y+2	; 0x02
 496:	b9 81       	ldd	r27, Y+1	; 0x01
 498:	ce 0f       	add	r28, r30
 49a:	d1 1d       	adc	r29, r1
 49c:	0f b6       	in	r0, 0x3f	; 63
 49e:	f8 94       	cli
 4a0:	de bf       	out	0x3e, r29	; 62
 4a2:	0f be       	out	0x3f, r0	; 63
 4a4:	cd bf       	out	0x3d, r28	; 61
 4a6:	ed 01       	movw	r28, r26
 4a8:	08 95       	ret

000004aa <_exit>:
 4aa:	f8 94       	cli

000004ac <__stop_program>:
 4ac:	ff cf       	rjmp	.-2      	; 0x4ac <__stop_program>
